target datalayout = "e-m:e-p270:32:32-p271:32:32-p272:64:64-i64:64-i128:128-f80:128-n8:16:32:64-S128"
target triple = "x86_64-pc-linux-gnu"

%struct.strbuf = type { i64, i64, ptr }
%struct.dir_struct = type { i32, i32, i32, ptr, ptr, ptr, ptr, %struct.dir_struct_internal }
%struct.dir_struct_internal = type { i32, i32, [3 x %struct.exclude_list_group], ptr, ptr, %struct.strbuf, %struct.oid_stat, %struct.oid_stat, i32, i32, i32 }
%struct.exclude_list_group = type { i32, i32, ptr }
%struct.oid_stat = type { %struct.stat_data, %struct.object_id, i32 }
%struct.stat_data = type { %struct.cache_time, %struct.cache_time, i32, i32, i32, i32, i32 }
%struct.cache_time = type { i32, i32 }
%struct.object_id = type { [32 x i8], i32 }
%struct.dir_entry = type { i32, [0 x i8] }

@ignore_case = external global i32, align 4
@.str.33 = private unnamed_addr constant [27 x i8] c"size_t overflow: %lu + %lu\00", align 1
@.str.34 = private unnamed_addr constant [27 x i8] c"size_t overflow: %lu * %lu\00", align 1

; Function Attrs: inlinehint nounwind uwtable
define internal i64 @st_add(i64 noundef %0, i64 noundef %1) #3 {
  %3 = alloca i64, align 8
  %4 = alloca i64, align 8
  store i64 %0, ptr %3, align 8, !tbaa !19
  store i64 %1, ptr %4, align 8, !tbaa !19
  %5 = load i64, ptr %4, align 8, !tbaa !19
  %6 = load i64, ptr %3, align 8, !tbaa !19
  %7 = sub i64 -1, %6
  %8 = icmp ugt i64 %5, %7
  br i1 %8, label %9, label %12

9:                                                ; preds = %2
  %10 = load i64, ptr %3, align 8, !tbaa !19
  %11 = load i64, ptr %4, align 8, !tbaa !19
  call void (ptr, ...) @die(ptr noundef @.str.33, i64 noundef %10, i64 noundef %11) #14
  unreachable

12:                                               ; preds = %2
  %13 = load i64, ptr %3, align 8, !tbaa !19
  %14 = load i64, ptr %4, align 8, !tbaa !19
  %15 = add i64 %13, %14
  ret i64 %15
}

; Function Attrs: nounwind uwtable
define internal ptr @dir_entry_new(ptr noundef %0, i32 noundef %1) #0 {
  %3 = alloca ptr, align 8
  %4 = alloca i32, align 4
  %5 = alloca ptr, align 8
  %6 = alloca i64, align 8
  store ptr %0, ptr %3, align 8, !tbaa !13
  store i32 %1, ptr %4, align 4, !tbaa !16
  call void @llvm.lifetime.start.p0(i64 8, ptr %5) #12
  br label %7

7:                                                ; preds = %2
  call void @llvm.lifetime.start.p0(i64 8, ptr %6) #12
  %8 = load i32, ptr %4, align 4, !tbaa !16
  %9 = sext i32 %8 to i64
  store i64 %9, ptr %6, align 8, !tbaa !19
  %10 = load i64, ptr %6, align 8, !tbaa !19
  %11 = call i64 @st_add(i64 noundef 4, i64 noundef %10)
  %12 = call i64 @st_add(i64 noundef %11, i64 noundef 1)
  %13 = call ptr @xcalloc(i64 noundef 1, i64 noundef %12)
  store ptr %13, ptr %5, align 8, !tbaa !181
  %14 = load ptr, ptr %5, align 8, !tbaa !181
  %15 = getelementptr inbounds nuw %struct.dir_entry, ptr %14, i32 0, i32 1
  %16 = getelementptr inbounds [0 x i8], ptr %15, i64 0, i64 0
  %17 = load ptr, ptr %3, align 8, !tbaa !13
  %18 = load i64, ptr %6, align 8, !tbaa !19
  call void @llvm.memcpy.p0.p0.i64(ptr align 4 %16, ptr align 1 %17, i64 %18, i1 false)
  call void @llvm.lifetime.end.p0(i64 8, ptr %6) #12
  br label %19

19:                                               ; preds = %7
  br label %20

20:                                               ; preds = %19
  %21 = load i32, ptr %4, align 4, !tbaa !16
  %22 = load ptr, ptr %5, align 8, !tbaa !181
  %23 = getelementptr inbounds nuw %struct.dir_entry, ptr %22, i32 0, i32 0
  store i32 %21, ptr %23, align 4, !tbaa !16
  %24 = load ptr, ptr %5, align 8, !tbaa !181
  call void @llvm.lifetime.end.p0(i64 8, ptr %5) #12
  ret ptr %24
}

; Function Attrs: inlinehint nounwind uwtable
define internal i64 @st_mult(i64 noundef %0, i64 noundef %1) #3 {
  %3 = alloca i64, align 8
  %4 = alloca i64, align 8
  store i64 %0, ptr %3, align 8, !tbaa !19
  store i64 %1, ptr %4, align 8, !tbaa !19
  %5 = load i64, ptr %3, align 8, !tbaa !19
  %6 = icmp ne i64 %5, 0
  br i1 %6, label %7, label %15

7:                                                ; preds = %2
  %8 = load i64, ptr %4, align 8, !tbaa !19
  %9 = load i64, ptr %3, align 8, !tbaa !19
  %10 = udiv i64 -1, %9
  %11 = icmp ugt i64 %8, %10
  br i1 %11, label %12, label %15

12:                                               ; preds = %7
  %13 = load i64, ptr %3, align 8, !tbaa !19
  %14 = load i64, ptr %4, align 8, !tbaa !19
  call void (ptr, ...) @die(ptr noundef @.str.34, i64 noundef %13, i64 noundef %14) #14
  unreachable

15:                                               ; preds = %7, %2
  %16 = load i64, ptr %3, align 8, !tbaa !19
  %17 = load i64, ptr %4, align 8, !tbaa !19
  %18 = mul i64 %16, %17
  ret i64 %18
}

; Function Attrs: nounwind uwtable
define internal ptr @dir_add_name(ptr noundef %0, ptr noundef %1, ptr noundef %2, i32 noundef %3) #0 {
  %5 = alloca ptr, align 8
  %6 = alloca ptr, align 8
  %7 = alloca ptr, align 8
  %8 = alloca ptr, align 8
  %9 = alloca i32, align 4
  store ptr %0, ptr %6, align 8, !tbaa !39
  store ptr %1, ptr %7, align 8, !tbaa !41
  store ptr %2, ptr %8, align 8, !tbaa !13
  store i32 %3, ptr %9, align 4, !tbaa !16
  %10 = load ptr, ptr %7, align 8, !tbaa !41
  %11 = load ptr, ptr %8, align 8, !tbaa !13
  %12 = load i32, ptr %9, align 4, !tbaa !16
  %13 = load i32, ptr @ignore_case, align 4, !tbaa !16
  %14 = call ptr @index_file_exists(ptr noundef %10, ptr noundef %11, i32 noundef %12, i32 noundef %13)
  %15 = icmp ne ptr %14, null
  br i1 %15, label %16, label %17

16:                                               ; preds = %4
  store ptr null, ptr %5, align 8
  br label %87

17:                                               ; preds = %4
  br label %18

18:                                               ; preds = %17
  %19 = load ptr, ptr %6, align 8, !tbaa !39
  %20 = getelementptr inbounds nuw %struct.dir_struct, ptr %19, i32 0, i32 1
  %21 = load i32, ptr %20, align 4, !tbaa !70
  %22 = add nsw i32 %21, 1
  %23 = load ptr, ptr %6, align 8, !tbaa !39
  %24 = getelementptr inbounds nuw %struct.dir_struct, ptr %23, i32 0, i32 7
  %25 = getelementptr inbounds nuw %struct.dir_struct_internal, ptr %24, i32 0, i32 0
  %26 = load i32, ptr %25, align 8, !tbaa !301
  %27 = icmp sgt i32 %22, %26
  br i1 %27, label %28, label %73

28:                                               ; preds = %18
  %29 = load ptr, ptr %6, align 8, !tbaa !39
  %30 = getelementptr inbounds nuw %struct.dir_struct, ptr %29, i32 0, i32 7
  %31 = getelementptr inbounds nuw %struct.dir_struct_internal, ptr %30, i32 0, i32 0
  %32 = load i32, ptr %31, align 8, !tbaa !301
  %33 = add nsw i32 %32, 16
  %34 = mul nsw i32 %33, 3
  %35 = sdiv i32 %34, 2
  %36 = load ptr, ptr %6, align 8, !tbaa !39
  %37 = getelementptr inbounds nuw %struct.dir_struct, ptr %36, i32 0, i32 1
  %38 = load i32, ptr %37, align 4, !tbaa !70
  %39 = add nsw i32 %38, 1
  %40 = icmp slt i32 %35, %39
  br i1 %40, label %41, label %49

41:                                               ; preds = %28
  %42 = load ptr, ptr %6, align 8, !tbaa !39
  %43 = getelementptr inbounds nuw %struct.dir_struct, ptr %42, i32 0, i32 1
  %44 = load i32, ptr %43, align 4, !tbaa !70
  %45 = add nsw i32 %44, 1
  %46 = load ptr, ptr %6, align 8, !tbaa !39
  %47 = getelementptr inbounds nuw %struct.dir_struct, ptr %46, i32 0, i32 7
  %48 = getelementptr inbounds nuw %struct.dir_struct_internal, ptr %47, i32 0, i32 0
  store i32 %45, ptr %48, align 8, !tbaa !301
  br label %60

49:                                               ; preds = %28
  %50 = load ptr, ptr %6, align 8, !tbaa !39
  %51 = getelementptr inbounds nuw %struct.dir_struct, ptr %50, i32 0, i32 7
  %52 = getelementptr inbounds nuw %struct.dir_struct_internal, ptr %51, i32 0, i32 0
  %53 = load i32, ptr %52, align 8, !tbaa !301
  %54 = add nsw i32 %53, 16
  %55 = mul nsw i32 %54, 3
  %56 = sdiv i32 %55, 2
  %57 = load ptr, ptr %6, align 8, !tbaa !39
  %58 = getelementptr inbounds nuw %struct.dir_struct, ptr %57, i32 0, i32 7
  %59 = getelementptr inbounds nuw %struct.dir_struct_internal, ptr %58, i32 0, i32 0
  store i32 %56, ptr %59, align 8, !tbaa !301
  br label %60

60:                                               ; preds = %49, %41
  %61 = load ptr, ptr %6, align 8, !tbaa !39
  %62 = getelementptr inbounds nuw %struct.dir_struct, ptr %61, i32 0, i32 3
  %63 = load ptr, ptr %62, align 8, !tbaa !74
  %64 = load ptr, ptr %6, align 8, !tbaa !39
  %65 = getelementptr inbounds nuw %struct.dir_struct, ptr %64, i32 0, i32 7
  %66 = getelementptr inbounds nuw %struct.dir_struct_internal, ptr %65, i32 0, i32 0
  %67 = load i32, ptr %66, align 8, !tbaa !301
  %68 = sext i32 %67 to i64
  %69 = call i64 @st_mult(i64 noundef 8, i64 noundef %68)
  %70 = call ptr @xrealloc(ptr noundef %63, i64 noundef %69)
  %71 = load ptr, ptr %6, align 8, !tbaa !39
  %72 = getelementptr inbounds nuw %struct.dir_struct, ptr %71, i32 0, i32 3
  store ptr %70, ptr %72, align 8, !tbaa !74
  br label %73

73:                                               ; preds = %60, %18
  br label %74

74:                                               ; preds = %73
  %75 = load ptr, ptr %8, align 8, !tbaa !13
  %76 = load i32, ptr %9, align 4, !tbaa !16
  %77 = call ptr @dir_entry_new(ptr noundef %75, i32 noundef %76)
  %78 = load ptr, ptr %6, align 8, !tbaa !39
  %79 = getelementptr inbounds nuw %struct.dir_struct, ptr %78, i32 0, i32 3
  %80 = load ptr, ptr %79, align 8, !tbaa !74
  %81 = load ptr, ptr %6, align 8, !tbaa !39
  %82 = getelementptr inbounds nuw %struct.dir_struct, ptr %81, i32 0, i32 1
  %83 = load i32, ptr %82, align 4, !tbaa !70
  %84 = add nsw i32 %83, 1
  store i32 %84, ptr %82, align 4, !tbaa !70
  %85 = sext i32 %83 to i64
  %86 = getelementptr inbounds ptr, ptr %80, i64 %85
  store ptr %77, ptr %86, align 8, !tbaa !181
  store ptr %77, ptr %5, align 8
  br label %87

87:                                               ; preds = %74, %16
  %88 = load ptr, ptr %5, align 8
  ret ptr %88
}