; Function Attrs: nounwind uwtable
define internal fastcc void @dir_add_name(ptr noundef captures(none) %0, ptr noundef %1, ptr noundef %2, i32 noundef %3) unnamed_addr #0 {
  %5 = load i32, ptr @ignore_case, align 4, !tbaa !10
  %6 = tail call ptr @index_file_exists(ptr noundef %1, ptr noundef %2, i32 noundef %3, i32 noundef %5) #27
  %.not = icmp eq ptr %6, null
  br i1 %.not, label %7, label %38

7:                                                ; preds = %4
  %8 = getelementptr inbounds nuw i8, ptr %0, i64 4
  %9 = load i32, ptr %8, align 4, !tbaa !76
  %10 = getelementptr inbounds nuw i8, ptr %0, i64 48
  %11 = load i32, ptr %10, align 8, !tbaa !263
  %.not21 = icmp slt i32 %9, %11
  br i1 %.not21, label %23, label %12

12:                                               ; preds = %7
  %13 = add nsw i32 %9, 1
  %14 = mul i32 %11, 3
  %15 = add i32 %14, 48
  %16 = sdiv i32 %15, 2
  %.not22 = icmp sgt i32 %16, %9
  %. = select i1 %.not22, i32 %16, i32 %13
  store i32 %., ptr %10, align 8, !tbaa !263
  %17 = sext i32 %. to i64
  %mul.ov.i = icmp slt i32 %., 0
  br i1 %mul.ov.i, label %18, label %st_mult.exit

18:                                               ; preds = %12
  tail call void (ptr, ...) @die(ptr noundef nonnull @.str.34, i64 noundef 8, i64 noundef %17) #29
  unreachable

st_mult.exit:                                     ; preds = %12
  %19 = getelementptr inbounds nuw i8, ptr %0, i64 16
  %20 = load ptr, ptr %19, align 8, !tbaa !77
  %21 = shl nuw nsw i64 %17, 3
  %22 = tail call ptr @xrealloc(ptr noundef %20, i64 noundef %21) #27
  store ptr %22, ptr %19, align 8, !tbaa !77
  br label %23

23:                                               ; preds = %7, %st_mult.exit
  %24 = sext i32 %3 to i64
  %25 = icmp ugt i32 %3, -5
  br i1 %25, label %26, label %st_add.exit.i

26:                                               ; preds = %23
  tail call void (ptr, ...) @die(ptr noundef nonnull @.str.33, i64 noundef 4, i64 noundef %24) #29
  unreachable

st_add.exit.i:                                    ; preds = %23
  %27 = icmp eq i32 %3, -5
  br i1 %27, label %28, label %dir_entry_new.exit

28:                                               ; preds = %st_add.exit.i
  tail call void (ptr, ...) @die(ptr noundef nonnull @.str.33, i64 noundef -1, i64 noundef 1) #29
  unreachable

dir_entry_new.exit:                               ; preds = %st_add.exit.i
  %29 = add nsw i64 %24, 5
  %30 = tail call noundef ptr @xcalloc(i64 noundef 1, i64 noundef %29) #27
  %31 = getelementptr inbounds nuw i8, ptr %30, i64 4
  tail call void @llvm.memcpy.p0.p0.i64(ptr nonnull align 4 %31, ptr readonly align 1 %2, i64 %24, i1 false)
  store i32 %3, ptr %30, align 4, !tbaa !10
  %32 = getelementptr inbounds nuw i8, ptr %0, i64 16
  %33 = load ptr, ptr %32, align 8, !tbaa !77
  %34 = load i32, ptr %8, align 4, !tbaa !76
  %35 = add nsw i32 %34, 1
  store i32 %35, ptr %8, align 4, !tbaa !76
  %36 = sext i32 %34 to i64
  %37 = getelementptr inbounds ptr, ptr %33, i64 %36
  store ptr %30, ptr %37, align 8, !tbaa !163
  br label %38

38:                                               ; preds = %4, %dir_entry_new.exit
  ret void
}